
build/firmware.elf:     file format elf32-littleriscv


Disassembly of section .text:

00000000 <_start>:
    /* ----------------------------------------------------------
     *  Çoklu hart desteği — sadece hart 0 devam etsin
     *  CV32E40P tek hart olduğu için bu genelde 0 döner ama
     *  defensive programming.
     * ---------------------------------------------------------- */
    csrr  t0, mhartid
   0:	f14022f3          	csrr	t0,mhartid
    bnez  t0, _park
   4:	06029663          	bnez	t0,70 <_park>

    /* ----------------------------------------------------------
     *  Stack pointer kurulumu
     * ---------------------------------------------------------- */
    la    sp, _stack_top
   8:	c1018113          	addi	sp,gp,-1008 # 20000410 <_stack_top>
     *  yoksa "la gp, __global_pointer$" → "addi gp, gp, ..."
     *  zincirine dönüşür ki bu da kendi kendine bağımlı olur.
     * ---------------------------------------------------------- */
    .option push
    .option norelax
    la    gp, __global_pointer$
   c:	20000197          	auipc	gp,0x20000
  10:	7f418193          	addi	gp,gp,2036 # 20000800 <__global_pointer$>

    /* ----------------------------------------------------------
     *  .bss section'ını sıfırla (init değersiz globaller)
     *  _sbss → _ebss arasını word-word sıfır yaz.
     * ---------------------------------------------------------- */
    la    t0, _sbss
  14:	20000297          	auipc	t0,0x20000
  18:	fec28293          	addi	t0,t0,-20 # 20000000 <qspi_last_instr>
    la    t1, _ebss
  1c:	20000317          	auipc	t1,0x20000
  20:	fe830313          	addi	t1,t1,-24 # 20000004 <_ebss>
    bgeu  t0, t1, _bss_done   /* boş bss varsa atla */
  24:	0062f763          	bgeu	t0,t1,32 <_bss_done>

00000028 <_bss_loop>:
_bss_loop:
    sw    zero, 0(t0)
  28:	0002a023          	sw	zero,0(t0)
    addi  t0, t0, 4
  2c:	0291                	addi	t0,t0,4
    bltu  t0, t1, _bss_loop
  2e:	fe62ede3          	bltu	t0,t1,28 <_bss_loop>

00000032 <_bss_done>:
    /* ----------------------------------------------------------
     *  .data section'ını IMEM'den (LMA) DMEM'e (VMA) kopyala
     *  Kaynak: _sidata (IMEM içinde)
     *  Hedef:  _sdata → _edata (DMEM'de)
     * ---------------------------------------------------------- */
    la    t0, _sidata    /* source pointer (IMEM LMA) */
  32:	72c00293          	li	t0,1836
    la    t1, _sdata     /* destination start (DMEM VMA) */
  36:	20000317          	auipc	t1,0x20000
  3a:	fca30313          	addi	t1,t1,-54 # 20000000 <qspi_last_instr>
    la    t2, _edata     /* destination end */
  3e:	20000397          	auipc	t2,0x20000
  42:	fc238393          	addi	t2,t2,-62 # 20000000 <qspi_last_instr>
    bgeu  t1, t2, _data_done
  46:	00737a63          	bgeu	t1,t2,5a <_data_done>

0000004a <_data_loop>:
_data_loop:
    lw    t3, 0(t0)
  4a:	0002ae03          	lw	t3,0(t0)
    sw    t3, 0(t1)
  4e:	01c32023          	sw	t3,0(t1)
    addi  t0, t0, 4
  52:	0291                	addi	t0,t0,4
    addi  t1, t1, 4
  54:	0311                	addi	t1,t1,4
    bltu  t1, t2, _data_loop
  56:	fe736ae3          	bltu	t1,t2,4a <_data_loop>

0000005a <_data_done>:
    /* ----------------------------------------------------------
     *  Trap vector base'i kur
     *  mtvec[1:0] = 00 → direct mode (tüm trap'ler mtvec'e gider)
     *  4-byte aligned olmalı
     * ---------------------------------------------------------- */
    la    t0, _trap_handler
  5a:	00000297          	auipc	t0,0x0
  5e:	02628293          	addi	t0,t0,38 # 80 <_trap_handler>
    csrw  mtvec, t0
  62:	30529073          	csrw	mtvec,t0

    /* ----------------------------------------------------------
     *  Interrupt'ları şimdilik kapat (main interrupt setup yapacaksa
     *  oradan açılır). Demo için interrupt'lar gerekmiyor.
     * ---------------------------------------------------------- */
    csrw  mie, zero
  66:	30401073          	csrw	mie,zero
    csrw  mip, zero
  6a:	34401073          	csrw	mip,zero

    /* ----------------------------------------------------------
     *  main() çağrısı — argv/argc geçmiyoruz (bare-metal)
     * ---------------------------------------------------------- */
    call  main
  6e:	20c9                	jal	130 <main>

00000070 <_park>:

    /* main() dönerse buraya düşeriz. Sonsuz loop. */
_park:
    wfi
  70:	10500073          	wfi
    j _park
  74:	bff5                	j	70 <_park>
	...

00000080 <_trap_handler>:
    /* mcause'u oku (debug için saklayabilirsiniz)
     *   bit[31] = 1 → interrupt
     *   bit[31] = 0 → exception
     *   bit[30:0] = sebep kodu
     */
    csrr  t0, mcause
  80:	342022f3          	csrr	t0,mcause

    /* Şimdilik basit dön: mret ile mepc'ye atla.
     * NOT: exception durumunda mepc'yi 4 artırmak gerekebilir
     * (illegal instruction vs.) — şimdilik atlamadan dönüyoruz. */
    mret
  84:	30200073          	mret
	...

00000092 <gpio_write>:
/* Shadow register: ODR doğrudan read-modify-write'a izin veriyor
 * ama RTL'de ODR AXI okuma ile doğru dönüyor, doğrudan kullanabiliriz. */

void gpio_write(uint16_t val) {
    /* RTL: GPIO_ODR <= {16'h0000, wdata[15:0]} */
    GPIO->ODR = (uint32_t)val;
  92:	400107b7          	lui	a5,0x40010
  96:	c3c8                	sw	a0,4(a5)
}
  98:	8082                	ret

0000009a <gpio_read>:
    uint32_t current = GPIO->ODR;
    GPIO->ODR = current & ~BIT(pin);
}

uint32_t gpio_read(void) {
    return GPIO->IDR;
  9a:	400107b7          	lui	a5,0x40010
  9e:	4388                	lw	a0,0(a5)
}
  a0:	8082                	ret

000000a2 <i2c_read_reg>:
    return I2C_OK;
}

int i2c_read_reg(uint8_t slave_addr, uint8_t reg_addr,
                 uint8_t *buf, uint8_t len) {
    if (len == 0 || len > I2C_MAX_BYTES) return I2C_ERR_TIMEOUT;
  a2:	fff68793          	addi	a5,a3,-1
  a6:	0ff7f793          	zext.b	a5,a5
  aa:	470d                	li	a4,3
  ac:	00f77463          	bgeu	a4,a5,b4 <i2c_read_reg+0x12>
  b0:	5579                	li	a0,-2

    /* Flag'i temizle */
    I2C->CFG_CLR = I2C_CLR_RX_DONE;

    return I2C_OK;
}
  b2:	8082                	ret
    I2C->CFG_CLR = I2C_CLR_TX_DONE | I2C_CLR_RX_DONE;
  b4:	400207b7          	lui	a5,0x40020
                 uint8_t *buf, uint8_t len) {
  b8:	1141                	addi	sp,sp,-16
    I2C->CFG_CLR = I2C_CLR_TX_DONE | I2C_CLR_RX_DONE;
  ba:	cbd8                	sw	a4,20(a5)
    I2C->NBY = (uint32_t)len;
  bc:	c394                	sw	a3,0(a5)
    I2C->ADR = (uint32_t)(slave_addr & 0x7F);
  be:	07f57513          	andi	a0,a0,127
  c2:	c3c8                	sw	a0,4(a5)
    I2C->TDR = (uint32_t)reg_addr;  /* [7:0]'a register adresi */
  c4:	c7cc                	sw	a1,12(a5)
    I2C->CFG = I2C_CFG_RX_START;
  c6:	4711                	li	a4,4
  c8:	cb98                	sw	a4,16(a5)
    volatile uint32_t timeout = I2C_TIMEOUT;
  ca:	6761                	lui	a4,0x18
  cc:	6a070713          	addi	a4,a4,1696 # 186a0 <_etext+0x17f74>
  d0:	c63a                	sw	a4,12(sp)
    while (!(I2C->CFG & I2C_CFG_RX_DONE)) {
  d2:	4b98                	lw	a4,16(a5)
  d4:	8b21                	andi	a4,a4,8
  d6:	c715                	beqz	a4,102 <i2c_read_reg+0x60>
    unpack_bytes(I2C->RDR, buf, len);
  d8:	4788                	lw	a0,8(a5)
  da:	4781                	li	a5,0
        buf[i] = (uint8_t)((rdr >> (i * 8)) & 0xFF);
  dc:	00379713          	slli	a4,a5,0x3
  e0:	00f605b3          	add	a1,a2,a5
  e4:	00e55733          	srl	a4,a0,a4
    for (uint8_t i = 0; i < len && i < 4; i++) {
  e8:	0785                	addi	a5,a5,1 # 40020001 <__global_pointer$+0x2001f801>
        buf[i] = (uint8_t)((rdr >> (i * 8)) & 0xFF);
  ea:	00e58023          	sb	a4,0(a1)
    for (uint8_t i = 0; i < len && i < 4; i++) {
  ee:	0ff7f713          	zext.b	a4,a5
  f2:	fed765e3          	bltu	a4,a3,dc <i2c_read_reg+0x3a>
    I2C->CFG_CLR = I2C_CLR_RX_DONE;
  f6:	400207b7          	lui	a5,0x40020
  fa:	4709                	li	a4,2
  fc:	cbd8                	sw	a4,20(a5)
    return I2C_OK;
  fe:	4501                	li	a0,0
 100:	a031                	j	10c <i2c_read_reg+0x6a>
        if (--timeout == 0) return I2C_ERR_TIMEOUT;
 102:	4732                	lw	a4,12(sp)
 104:	177d                	addi	a4,a4,-1
 106:	c63a                	sw	a4,12(sp)
 108:	f769                	bnez	a4,d2 <i2c_read_reg+0x30>
    if (len == 0 || len > I2C_MAX_BYTES) return I2C_ERR_TIMEOUT;
 10a:	5579                	li	a0,-2
}
 10c:	0141                	addi	sp,sp,16
 10e:	8082                	ret

00000110 <print_hex_line>:
#include "qspi.h"

/* =========================================================
 *  Yardımcı: 32-bit değeri " = 0xXXXXXXXX\r\n" formatında yaz
 * ========================================================= */
static void print_hex_line(const char *label, uint32_t val) {
 110:	1141                	addi	sp,sp,-16
 112:	c606                	sw	ra,12(sp)
 114:	c422                	sw	s0,8(sp)
 116:	842e                	mv	s0,a1
    uart_send_string(label);
 118:	2e2d                	jal	452 <uart_send_string>
    uart_send_string(" = ");
 11a:	50800513          	li	a0,1288
 11e:	2e15                	jal	452 <uart_send_string>
    uart_print_hex(val);
 120:	8522                	mv	a0,s0
 122:	26b1                	jal	46e <uart_print_hex>
    uart_send_string("\r\n");
}
 124:	4422                	lw	s0,8(sp)
 126:	40b2                	lw	ra,12(sp)
    uart_send_string("\r\n");
 128:	50c00513          	li	a0,1292
}
 12c:	0141                	addi	sp,sp,16
    uart_send_string("\r\n");
 12e:	a615                	j	452 <uart_send_string>

00000130 <main>:
}

/* =========================================================
 *  main entry
 * ========================================================= */
int main(void) {
 130:	7179                	addi	sp,sp,-48
 132:	d606                	sw	ra,44(sp)
 134:	d422                	sw	s0,40(sp)
 136:	d226                	sw	s1,36(sp)
 138:	ce4e                	sw	s3,28(sp)
 13a:	cc52                	sw	s4,24(sp)
 13c:	d04a                	sw	s2,32(sp)
 13e:	ca56                	sw	s5,20(sp)
    /* 1. UART init — sentezdeki parametreler 48MHz/115200 baud sabit.
     *    RTL UART_CPB yazımını şu an baud_select'e bağlamıyor (RTL bug),
     *    ileride düzeltildiğinde uart_init() içine eklenecek. */
    uart_init();
 140:	2cdd                	jal	436 <uart_init>

    uart_send_string("\r\n");
 142:	50c00513          	li	a0,1292
 146:	2631                	jal	452 <uart_send_string>
    uart_send_string("====================================\r\n");
 148:	51000513          	li	a0,1296
 14c:	2619                	jal	452 <uart_send_string>
    uart_send_string("  CV32E40P SoC - TEKNOFEST 2026   \r\n");
 14e:	53800513          	li	a0,1336
 152:	2601                	jal	452 <uart_send_string>
    uart_send_string("  Boot OK!                         \r\n");
 154:	56000513          	li	a0,1376
 158:	2ced                	jal	452 <uart_send_string>
    uart_send_string("====================================\r\n");
 15a:	51000513          	li	a0,1296
 15e:	2cd5                	jal	452 <uart_send_string>
    uart_send_string("\r\n[GPIO Test]\r\n");
 160:	58800513          	li	a0,1416
 164:	24fd                	jal	452 <uart_send_string>
    gpio_write(0x0000);
 166:	4501                	li	a0,0
 168:	372d                	jal	92 <gpio_write>
    timer_delay_ms(100);
 16a:	06400513          	li	a0,100
 16e:	2c59                	jal	404 <timer_delay_ms>
    uint16_t patterns[] = { 0x0001, 0x000F, 0x00FF, 0xAAAA };
 170:	000f07b7          	lui	a5,0xf0
 174:	0785                	addi	a5,a5,1 # f0001 <_etext+0xef8d5>
 176:	c43e                	sw	a5,8(sp)
 178:	aaaa07b7          	lui	a5,0xaaaa0
 17c:	0ff78793          	addi	a5,a5,255 # aaaa00ff <__global_pointer$+0x8aa9f8ff>
 180:	c63e                	sw	a5,12(sp)
    for (int i = 0; i < 4; i++) {
 182:	0020                	addi	s0,sp,8
        gpio_write(patterns[i]);
 184:	00045903          	lhu	s2,0(s0)
    for (int i = 0; i < 4; i++) {
 188:	0409                	addi	s0,s0,2
        gpio_write(patterns[i]);
 18a:	854a                	mv	a0,s2
 18c:	3719                	jal	92 <gpio_write>
        timer_delay_ms(200);
 18e:	0c800513          	li	a0,200
 192:	2c8d                	jal	404 <timer_delay_ms>
        uart_send_string("  ODR pattern: ");
 194:	59800513          	li	a0,1432
 198:	2c6d                	jal	452 <uart_send_string>
        uart_print_hex(patterns[i]);
 19a:	854a                	mv	a0,s2
 19c:	2cc9                	jal	46e <uart_print_hex>
        uart_send_string("  IDR read: ");
 19e:	5a800513          	li	a0,1448
 1a2:	2c45                	jal	452 <uart_send_string>
        uart_print_hex(gpio_read());
 1a4:	3ddd                	jal	9a <gpio_read>
 1a6:	24e1                	jal	46e <uart_print_hex>
        uart_send_string("\r\n");
 1a8:	50c00513          	li	a0,1292
 1ac:	245d                	jal	452 <uart_send_string>
    for (int i = 0; i < 4; i++) {
 1ae:	081c                	addi	a5,sp,16
 1b0:	fcf41ae3          	bne	s0,a5,184 <main+0x54>
    gpio_write(0x0000);
 1b4:	4501                	li	a0,0
 1b6:	3df1                	jal	92 <gpio_write>
    uart_send_string("[GPIO Test] DONE\r\n");
 1b8:	5b800513          	li	a0,1464
 1bc:	2c59                	jal	452 <uart_send_string>
    uart_send_string("\r\n[Timer Test]\r\n");
 1be:	5cc00513          	li	a0,1484
 1c2:	2c41                	jal	452 <uart_send_string>
    timer_init(TIMER_PRE_1US, TIMER_ARE_1MS, TIMER_MOD_UP);
 1c4:	4605                	li	a2,1
 1c6:	3e700593          	li	a1,999
 1ca:	02f00513          	li	a0,47
 1ce:	2af5                	jal	3ca <timer_init>
    timer_enable();
 1d0:	2c01                	jal	3e0 <timer_enable>
    uint32_t start_evn = timer_get_events();
 1d2:	242d                	jal	3fc <timer_get_events>
 1d4:	892a                	mv	s2,a0
    uart_send_string("  Waiting 1000 ms...\r\n");
 1d6:	5e000513          	li	a0,1504
 1da:	2ca5                	jal	452 <uart_send_string>
    while (timer_get_events() - start_evn < 1000);
 1dc:	3e700413          	li	s0,999
 1e0:	2c31                	jal	3fc <timer_get_events>
 1e2:	41250533          	sub	a0,a0,s2
 1e6:	fea47de3          	bgeu	s0,a0,1e0 <main+0xb0>
    uint32_t end_evn = timer_get_events();
 1ea:	2c09                	jal	3fc <timer_get_events>
 1ec:	842a                	mv	s0,a0
    timer_disable();
 1ee:	2af5                	jal	3ea <timer_disable>
    uart_send_string(label);
 1f0:	4501                	li	a0,0
 1f2:	5f800513          	li	a0,1528
 1f6:	2cb1                	jal	452 <uart_send_string>
    uart_send_string(" = ");
 1f8:	50800513          	li	a0,1288
 1fc:	2c99                	jal	452 <uart_send_string>
    print_dec_line("  Elapsed ms (events)", end_evn - start_evn);
 1fe:	41240433          	sub	s0,s0,s2
    uart_print_dec(val);
 202:	8522                	mv	a0,s0
 204:	2475                	jal	4b0 <uart_print_dec>
    uart_send_string("\r\n");
 206:	50c00513          	li	a0,1292
 20a:	24a1                	jal	452 <uart_send_string>
    print_hex_line("  Last TIM_CNT", timer_get_count());
 20c:	22e5                	jal	3f4 <timer_get_count>
 20e:	85aa                	mv	a1,a0
 210:	4501                	li	a0,0
 212:	61000513          	li	a0,1552
 216:	3ded                	jal	110 <print_hex_line>
    uart_send_string("[Timer Test] DONE\r\n");
 218:	4501                	li	a0,0
 21a:	62000513          	li	a0,1568
 21e:	2c15                	jal	452 <uart_send_string>
    uart_send_string("\r\n[QSPI Test]\r\n");
 220:	4501                	li	a0,0
 222:	63400513          	li	a0,1588
 226:	2435                	jal	452 <uart_send_string>
    qspi_init();
 228:	22a1                	jal	370 <qspi_init>
    uart_send_string("  QSPI initialized\r\n");
 22a:	4501                	li	a0,0
 22c:	64400513          	li	a0,1604
 230:	240d                	jal	452 <uart_send_string>
    uint32_t id = qspi_read_id();
 232:	2ab9                	jal	390 <qspi_read_id>
 234:	85aa                	mv	a1,a0
    print_hex_line("  JEDEC ID", id);
 236:	4501                	li	a0,0
 238:	65c00513          	li	a0,1628
 23c:	3dd1                	jal	110 <print_hex_line>
    uint8_t sr = qspi_read_status();
 23e:	2a85                	jal	3ae <qspi_read_status>
 240:	85aa                	mv	a1,a0
    print_hex_line("  Status Reg-1", (uint32_t)sr);
 242:	4501                	li	a0,0
 244:	66800513          	li	a0,1640
 248:	35e1                	jal	110 <print_hex_line>
    uart_send_string("[QSPI Test] DONE\r\n");
 24a:	4501                	li	a0,0
 24c:	67800513          	li	a0,1656
 250:	2409                	jal	452 <uart_send_string>
    uart_send_string("\r\n[I2C Test]\r\n");
 252:	4501                	li	a0,0
 254:	68c00513          	li	a0,1676
 258:	2aed                	jal	452 <uart_send_string>
    int rc = i2c_read_reg(0x68, 0x00, buf, 1);
 25a:	4685                	li	a3,1
 25c:	0030                	addi	a2,sp,8
 25e:	4581                	li	a1,0
 260:	06800513          	li	a0,104
    uint8_t buf[4] = {0};
 264:	c402                	sw	zero,8(sp)
    int rc = i2c_read_reg(0x68, 0x00, buf, 1);
 266:	3d35                	jal	a2 <i2c_read_reg>
    if (rc == I2C_OK) {
 268:	e925                	bnez	a0,2d8 <main+0x1a8>
        uart_send_string("  Read OK, byte = ");
 26a:	4501                	li	a0,0
 26c:	69c00513          	li	a0,1692
 270:	22cd                	jal	452 <uart_send_string>
        uart_print_hex((uint32_t)buf[0]);
 272:	00814503          	lbu	a0,8(sp)
 276:	2ae5                	jal	46e <uart_print_hex>
        uart_send_string("\r\n");
 278:	50c00513          	li	a0,1292
        uart_send_string("  Read failed (no slave or timeout)\r\n");
 27c:	2ad9                	jal	452 <uart_send_string>
    uart_send_string("[I2C Test] DONE\r\n");
 27e:	4501                	li	a0,0
 280:	6d800513          	li	a0,1752
 284:	22f9                	jal	452 <uart_send_string>
    uart_send_string("\r\n[Heartbeat Loop]\r\n");
 286:	4501                	li	a0,0
 288:	6ec00513          	li	a0,1772
 28c:	22d9                	jal	452 <uart_send_string>
    uint16_t led_state = 0x0001;
 28e:	4405                	li	s0,1
    uint32_t counter = 0;
 290:	4901                	li	s2,0
        uart_send_string("  Beat ");
 292:	4a01                	li	s4,0
        uart_send_string("  LED: ");
 294:	4a81                	li	s5,0
        uart_send_string("  Beat ");
 296:	70400513          	li	a0,1796
 29a:	2a65                	jal	452 <uart_send_string>
        uart_print_dec(counter++);
 29c:	854a                	mv	a0,s2
 29e:	2c09                	jal	4b0 <uart_print_dec>
        uart_send_string("  LED: ");
 2a0:	70c00513          	li	a0,1804
 2a4:	227d                	jal	452 <uart_send_string>
        uart_print_hex((uint32_t)led_state);
 2a6:	8522                	mv	a0,s0
 2a8:	22d9                	jal	46e <uart_print_hex>
        uart_send_string("\r\n");
 2aa:	50c00513          	li	a0,1292
 2ae:	2255                	jal	452 <uart_send_string>
        gpio_write(led_state);
 2b0:	8522                	mv	a0,s0
 2b2:	33c5                	jal	92 <gpio_write>
        led_state = (uint16_t)((led_state << 1) | (led_state >> 15));
 2b4:	00f45793          	srli	a5,s0,0xf
 2b8:	0406                	slli	s0,s0,0x1
 2ba:	8fc1                	or	a5,a5,s0
        if (led_state == 0) led_state = 0x0001;
 2bc:	843e                	mv	s0,a5
 2be:	07c2                	slli	a5,a5,0x10
 2c0:	83c1                	srli	a5,a5,0x10
        uart_print_dec(counter++);
 2c2:	00190993          	addi	s3,s2,1
        if (led_state == 0) led_state = 0x0001;
 2c6:	e391                	bnez	a5,2ca <main+0x19a>
 2c8:	4405                	li	s0,1
 2ca:	0442                	slli	s0,s0,0x10
        timer_delay_ms(1000);
 2cc:	3e800513          	li	a0,1000
        if (led_state == 0) led_state = 0x0001;
 2d0:	8041                	srli	s0,s0,0x10
        timer_delay_ms(1000);
 2d2:	2a0d                	jal	404 <timer_delay_ms>
        uart_print_dec(counter++);
 2d4:	894e                	mv	s2,s3
 2d6:	b7c1                	j	296 <main+0x166>
        uart_send_string("  Read failed (no slave or timeout)\r\n");
 2d8:	4501                	li	a0,0
 2da:	6b000513          	li	a0,1712
 2de:	bf79                	j	27c <main+0x14c>

000002e0 <qspi_wait_idle>:

/* =========================================================
 *  Dahili: meşgul bekle
 * ========================================================= */
static void qspi_wait_idle(void) {
    while (QSPI->STA & QSPI_STA_BUSY);
 2e0:	40030737          	lui	a4,0x40030
 2e4:	475c                	lw	a5,12(a4)
 2e6:	8b89                	andi	a5,a5,2
 2e8:	fff5                	bnez	a5,2e4 <qspi_wait_idle+0x4>
}
 2ea:	8082                	ret

000002ec <qspi_break_shadow>:
 *  Dahili: aynı instruction tekrar kullanılacaksa
 *  araya 0xFF (NOP) koy ve bekle.
 *  Not: 0xFF birçok flash'ta tanımsız komuttur ve ignored olur.
 *       CS aktifleşip 0xFF gönderilir, CS pasifleşir — zararsız.
 * ========================================================= */
static void qspi_break_shadow(void) {
 2ec:	1141                	addi	sp,sp,-16
 2ee:	c606                	sw	ra,12(sp)
    /* Adres fazı olmadan, veri fazı olmadan sadece 0xFF gönder */
    QSPI->ADDR_FLAG = 0;
 2f0:	40030737          	lui	a4,0x40030
    QSPI->CCR = QSPI_CCR_PRESC(QSPI_DEFAULT_PRESC) | FLASH_CMD_NOP;
 2f4:	080007b7          	lui	a5,0x8000
    QSPI->ADDR_FLAG = 0;
 2f8:	00072a23          	sw	zero,20(a4) # 40030014 <__global_pointer$+0x2002f814>
    QSPI->CCR = QSPI_CCR_PRESC(QSPI_DEFAULT_PRESC) | FLASH_CMD_NOP;
 2fc:	0ff78793          	addi	a5,a5,255 # 80000ff <_etext+0x7fff9d3>
 300:	c31c                	sw	a5,0(a4)
    qspi_wait_idle();
 302:	3ff9                	jal	2e0 <qspi_wait_idle>
    qspi_last_instr = FLASH_CMD_NOP;
}
 304:	40b2                	lw	ra,12(sp)
    qspi_last_instr = FLASH_CMD_NOP;
 306:	200007b7          	lui	a5,0x20000
 30a:	577d                	li	a4,-1
 30c:	00e78023          	sb	a4,0(a5) # 20000000 <qspi_last_instr>
}
 310:	0141                	addi	sp,sp,16
 312:	8082                	ret

00000314 <qspi_read_with_addr>:

/* =========================================================
 *  Dahili: adresli okuma (instruction + address + read data)
 * ========================================================= */
static void qspi_read_with_addr(uint8_t instr, uint32_t addr,
                                 uint8_t len_bytes) {
 314:	1101                	addi	sp,sp,-32
 316:	c64e                	sw	s3,12(sp)
    if (instr == qspi_last_instr) qspi_break_shadow();
 318:	200009b7          	lui	s3,0x20000
 31c:	0009c783          	lbu	a5,0(s3) # 20000000 <qspi_last_instr>
                                 uint8_t len_bytes) {
 320:	cc22                	sw	s0,24(sp)
 322:	ca26                	sw	s1,20(sp)
 324:	c84a                	sw	s2,16(sp)
 326:	ce06                	sw	ra,28(sp)
 328:	84aa                	mv	s1,a0
 32a:	892e                	mv	s2,a1
 32c:	8432                	mv	s0,a2
    if (instr == qspi_last_instr) qspi_break_shadow();
 32e:	00a79363          	bne	a5,a0,334 <qspi_read_with_addr+0x20>
 332:	3f6d                	jal	2ec <qspi_break_shadow>

    /* RX FIFO'yu temizle */
    QSPI->FCR = QSPI_FCR_RX_CLR;
 334:	40030737          	lui	a4,0x40030
 338:	4785                	li	a5,1
 33a:	cb1c                	sw	a5,16(a4)

    QSPI->ADR      = addr;
 33c:	01272223          	sw	s2,4(a4) # 40030004 <__global_pointer$+0x2002f804>
    QSPI->ADDR_FLAG = 1;
 340:	cb5c                	sw	a5,20(a4)

    QSPI->CCR = QSPI_CCR_PRESC(QSPI_DEFAULT_PRESC) |
                QSPI_CCR_DSIZE(len_bytes)           |
 342:	fff40793          	addi	a5,s0,-1
 346:	00ff06b7          	lui	a3,0xff0
 34a:	07c2                	slli	a5,a5,0x10
 34c:	8ff5                	and	a5,a5,a3
                QSPI_CCR_DMODE_x1                   |
                QSPI_CCR_DIR_READ                   |
 34e:	080006b7          	lui	a3,0x8000
 352:	8fc5                	or	a5,a5,s1
 354:	10068693          	addi	a3,a3,256 # 8000100 <_etext+0x7fff9d4>
 358:	8fd5                	or	a5,a5,a3
    QSPI->CCR = QSPI_CCR_PRESC(QSPI_DEFAULT_PRESC) |
 35a:	c31c                	sw	a5,0(a4)
                QSPI_CCR_INSTR(instr);

    qspi_wait_idle();
 35c:	3751                	jal	2e0 <qspi_wait_idle>
    qspi_last_instr = instr;
}
 35e:	40f2                	lw	ra,28(sp)
 360:	4462                	lw	s0,24(sp)
    qspi_last_instr = instr;
 362:	00998023          	sb	s1,0(s3)
}
 366:	4942                	lw	s2,16(sp)
 368:	44d2                	lw	s1,20(sp)
 36a:	49b2                	lw	s3,12(sp)
 36c:	6105                	addi	sp,sp,32
 36e:	8082                	ret

00000370 <qspi_init>:
 *  Public API
 * ========================================================= */

void qspi_init(void) {
    /* FIFO'ları ve status'u temizle */
    QSPI->FCR = QSPI_FCR_RX_CLR | QSPI_FCR_TX_CLR;
 370:	400307b7          	lui	a5,0x40030
 374:	470d                	li	a4,3
 376:	cb98                	sw	a4,16(a5)
    QSPI->CCR = QSPI_CCR_STA_CLR;
 378:	80000737          	lui	a4,0x80000
 37c:	c398                	sw	a4,0(a5)

    /* CCR'ı sıfırla (instr_shadow'ı RTL'de 0'a başlatır, biz de 0'da bırakıyoruz) */
    QSPI->CCR      = 0;
 37e:	0007a023          	sw	zero,0(a5) # 40030000 <__global_pointer$+0x2002f800>
    QSPI->ADDR_FLAG = 0;
 382:	0007aa23          	sw	zero,20(a5)
    qspi_last_instr = 0x00;
 386:	200007b7          	lui	a5,0x20000
 38a:	00078023          	sb	zero,0(a5) # 20000000 <qspi_last_instr>
}
 38e:	8082                	ret

00000390 <qspi_read_id>:

uint32_t qspi_read_id(void) {
 390:	1141                	addi	sp,sp,-16
    /* RDID (0x9F): 3 byte döner — manufacturer + device type + capacity */
    qspi_read_with_addr(FLASH_CMD_RDID, 0, 3);
 392:	09f00513          	li	a0,159
 396:	460d                	li	a2,3
 398:	4581                	li	a1,0
uint32_t qspi_read_id(void) {
 39a:	c606                	sw	ra,12(sp)
    qspi_read_with_addr(FLASH_CMD_RDID, 0, 3);
 39c:	3fa5                	jal	314 <qspi_read_with_addr>

    /* RX FIFO'dan oku */
    uint32_t raw = QSPI->DR;
 39e:	400307b7          	lui	a5,0x40030
 3a2:	4788                	lw	a0,8(a5)

    /* RTL LOAD state'inde byte swap yapılıyor:
     * FIFO'dan {[7:0],[15:8],[23:16],[31:24]} sırasıyla geliyor.
     * Yani DR[7:0]=manufacturer, DR[15:8]=device_type, DR[23:16]=capacity */
    return raw & 0x00FFFFFFUL;
}
 3a4:	40b2                	lw	ra,12(sp)
    return raw & 0x00FFFFFFUL;
 3a6:	0522                	slli	a0,a0,0x8
}
 3a8:	8121                	srli	a0,a0,0x8
 3aa:	0141                	addi	sp,sp,16
 3ac:	8082                	ret

000003ae <qspi_read_status>:

uint8_t qspi_read_status(void) {
 3ae:	1141                	addi	sp,sp,-16
    /* RDSR1 (0x05): 1 byte status register */
    qspi_read_with_addr(FLASH_CMD_RDSR1, 0, 1);
 3b0:	4515                	li	a0,5
 3b2:	4605                	li	a2,1
 3b4:	4581                	li	a1,0
uint8_t qspi_read_status(void) {
 3b6:	c606                	sw	ra,12(sp)
    qspi_read_with_addr(FLASH_CMD_RDSR1, 0, 1);
 3b8:	3fb1                	jal	314 <qspi_read_with_addr>
    return (uint8_t)(QSPI->DR & 0xFF);
 3ba:	400307b7          	lui	a5,0x40030
 3be:	4788                	lw	a0,8(a5)
}
 3c0:	40b2                	lw	ra,12(sp)
 3c2:	0ff57513          	zext.b	a0,a0
 3c6:	0141                	addi	sp,sp,16
 3c8:	8082                	ret

000003ca <timer_init>:
#include "timer.h"

void timer_init(uint32_t prescaler, uint32_t reload, uint32_t mode) {
    TIMER->ENA   = 0;          /* Önce devre dışı bırak */
 3ca:	400007b7          	lui	a5,0x40000
 3ce:	0007a623          	sw	zero,12(a5) # 4000000c <__global_pointer$+0x1ffff80c>
    TIMER->PRE_m = prescaler;
 3d2:	c388                	sw	a0,0(a5)
    TIMER->ARE   = reload;
 3d4:	c3cc                	sw	a1,4(a5)
    TIMER->MOD   = mode;
 3d6:	cb90                	sw	a2,16(a5)
    TIMER->CLR   = 1;          /* CNT=0, TIM_PRE=TIM_PRE_m yükle */
 3d8:	4705                	li	a4,1
 3da:	c798                	sw	a4,8(a5)
    TIMER->EVC   = 1;          /* Event sayacını sıfırla */
 3dc:	cfd8                	sw	a4,28(a5)
}
 3de:	8082                	ret

000003e0 <timer_enable>:

void timer_enable(void) {
    TIMER->ENA = 1;
 3e0:	400007b7          	lui	a5,0x40000
 3e4:	4705                	li	a4,1
 3e6:	c7d8                	sw	a4,12(a5)
}
 3e8:	8082                	ret

000003ea <timer_disable>:

void timer_disable(void) {
    TIMER->ENA = 0;
 3ea:	400007b7          	lui	a5,0x40000
 3ee:	0007a623          	sw	zero,12(a5) # 4000000c <__global_pointer$+0x1ffff80c>
}
 3f2:	8082                	ret

000003f4 <timer_get_count>:
void timer_clear_events(void) {
    TIMER->EVC = 1;
}

uint32_t timer_get_count(void) {
    return TIMER->CNT;
 3f4:	400007b7          	lui	a5,0x40000
 3f8:	4bc8                	lw	a0,20(a5)
}
 3fa:	8082                	ret

000003fc <timer_get_events>:

uint32_t timer_get_events(void) {
    return TIMER->EVN;
 3fc:	400007b7          	lui	a5,0x40000
 400:	4f88                	lw	a0,24(a5)
}
 402:	8082                	ret

00000404 <timer_delay_ms>:

void timer_delay_ms(uint32_t ms) {
    if (ms == 0) return;
 404:	c905                	beqz	a0,434 <timer_delay_ms+0x30>
void timer_delay_ms(uint32_t ms) {
 406:	1141                	addi	sp,sp,-16
 408:	c422                	sw	s0,8(sp)

    /* 48MHz / prescaler(48) = 1µs tick, ARE=999 → 1ms/event */
    timer_init(TIMER_PRE_1US, TIMER_ARE_1MS, TIMER_MOD_UP);
 40a:	4605                	li	a2,1
 40c:	842a                	mv	s0,a0
 40e:	3e700593          	li	a1,999
 412:	02f00513          	li	a0,47
void timer_delay_ms(uint32_t ms) {
 416:	c606                	sw	ra,12(sp)
    timer_init(TIMER_PRE_1US, TIMER_ARE_1MS, TIMER_MOD_UP);
 418:	3f4d                	jal	3ca <timer_init>
    TIMER->ENA = 1;
 41a:	400007b7          	lui	a5,0x40000
 41e:	4705                	li	a4,1
 420:	c7d8                	sw	a4,12(a5)
    timer_enable();

    /* TIM_EVN ms adet event birikene kadar bekle */
    while (TIMER->EVN < ms);
 422:	4f98                	lw	a4,24(a5)
 424:	fe876fe3          	bltu	a4,s0,422 <timer_delay_ms+0x1e>

    timer_disable();
}
 428:	40b2                	lw	ra,12(sp)
 42a:	4422                	lw	s0,8(sp)
    TIMER->ENA = 0;
 42c:	0007a623          	sw	zero,12(a5) # 4000000c <__global_pointer$+0x1ffff80c>
}
 430:	0141                	addi	sp,sp,16
 432:	8082                	ret
 434:	8082                	ret

00000436 <uart_init>:
#include "uart.h"

void uart_init(void) {
    /* CFG'yi temizle — bir önceki session'dan kalan TX_DONE vs. flags */
    UART->CFG = 0;
 436:	400407b7          	lui	a5,0x40040
 43a:	0007a823          	sw	zero,16(a5) # 40040010 <__global_pointer$+0x2003f810>
}
 43e:	8082                	ret

00000440 <uart_send_byte>:

void uart_send_byte(uint8_t data) {
    /* 1. Veriyi TDR'a yaz */
    UART->TDR = (uint32_t)data;
 440:	40040737          	lui	a4,0x40040
 444:	c748                	sw	a0,12(a4)

    /* 2. TX başlat (CFG=0x01 → bit[0]=TX_START; aynı zamanda TX_DONE flag'ini
     *    temizler çünkü CFG register'ına 0x01 yazılmış olur) */
    UART->CFG = UART_CFG_TX_START;
 446:	4785                	li	a5,1
 448:	cb1c                	sw	a5,16(a4)

    /* 3. TX_DONE flag'ini bekle (STOP bit tamamlandığında HW bit[2] set eder) */
    while (!(UART->CFG & UART_CFG_TX_DONE));
 44a:	4b1c                	lw	a5,16(a4)
 44c:	8b91                	andi	a5,a5,4
 44e:	dff5                	beqz	a5,44a <uart_send_byte+0xa>
}
 450:	8082                	ret

00000452 <uart_send_string>:

    /* RDR'ı oku — RX FSM tüm 8 biti UART_RDR'a yazmış durumda */
    return (uint8_t)(UART->RDR & 0xFF);
}

void uart_send_string(const char *str) {
 452:	1141                	addi	sp,sp,-16
 454:	c422                	sw	s0,8(sp)
 456:	c606                	sw	ra,12(sp)
 458:	842a                	mv	s0,a0
    while (*str) {
 45a:	00044503          	lbu	a0,0(s0)
 45e:	e509                	bnez	a0,468 <uart_send_string+0x16>
        uart_send_byte((uint8_t)*str++);
    }
}
 460:	40b2                	lw	ra,12(sp)
 462:	4422                	lw	s0,8(sp)
 464:	0141                	addi	sp,sp,16
 466:	8082                	ret
        uart_send_byte((uint8_t)*str++);
 468:	0405                	addi	s0,s0,1
 46a:	3fd9                	jal	440 <uart_send_byte>
 46c:	b7fd                	j	45a <uart_send_string+0x8>

0000046e <uart_print_hex>:

void uart_print_hex(uint32_t val) {
 46e:	1101                	addi	sp,sp,-32
 470:	ca26                	sw	s1,20(sp)
 472:	84aa                	mv	s1,a0
    static const char hex_chars[] = "0123456789ABCDEF";
    uart_send_string("0x");
 474:	4501                	li	a0,0
 476:	71400513          	li	a0,1812
void uart_print_hex(uint32_t val) {
 47a:	cc22                	sw	s0,24(sp)
 47c:	c84a                	sw	s2,16(sp)
 47e:	c64e                	sw	s3,12(sp)
 480:	ce06                	sw	ra,28(sp)
    for (int i = 28; i >= 0; i -= 4) {
 482:	4471                	li	s0,28
    uart_send_string("0x");
 484:	37f9                	jal	452 <uart_send_string>
        uart_send_byte((uint8_t)hex_chars[(val >> i) & 0xF]);
 486:	4981                	li	s3,0
    for (int i = 28; i >= 0; i -= 4) {
 488:	5971                	li	s2,-4
        uart_send_byte((uint8_t)hex_chars[(val >> i) & 0xF]);
 48a:	0084d733          	srl	a4,s1,s0
 48e:	8b3d                	andi	a4,a4,15
 490:	71800793          	li	a5,1816
 494:	97ba                	add	a5,a5,a4
 496:	0007c503          	lbu	a0,0(a5)
    for (int i = 28; i >= 0; i -= 4) {
 49a:	1471                	addi	s0,s0,-4
        uart_send_byte((uint8_t)hex_chars[(val >> i) & 0xF]);
 49c:	3755                	jal	440 <uart_send_byte>
    for (int i = 28; i >= 0; i -= 4) {
 49e:	ff2416e3          	bne	s0,s2,48a <uart_print_hex+0x1c>
    }
}
 4a2:	40f2                	lw	ra,28(sp)
 4a4:	4462                	lw	s0,24(sp)
 4a6:	44d2                	lw	s1,20(sp)
 4a8:	4942                	lw	s2,16(sp)
 4aa:	49b2                	lw	s3,12(sp)
 4ac:	6105                	addi	sp,sp,32
 4ae:	8082                	ret

000004b0 <uart_print_dec>:

void uart_print_dec(uint32_t val) {
    if (val == 0) {
 4b0:	c921                	beqz	a0,500 <uart_print_dec+0x50>
void uart_print_dec(uint32_t val) {
 4b2:	1101                	addi	sp,sp,-32
 4b4:	ca26                	sw	s1,20(sp)
 4b6:	ce06                	sw	ra,28(sp)
 4b8:	cc22                	sw	s0,24(sp)
 4ba:	c84a                	sw	s2,16(sp)
 4bc:	4781                	li	a5,0
        return;
    }
    char buf[10];
    int idx = 0;
    while (val > 0) {
        buf[idx++] = (char)('0' + (val % 10));
 4be:	0044                	addi	s1,sp,4
 4c0:	46a9                	li	a3,10
    while (val > 0) {
 4c2:	4625                	li	a2,9
        buf[idx++] = (char)('0' + (val % 10));
 4c4:	02d57733          	remu	a4,a0,a3
 4c8:	00f485b3          	add	a1,s1,a5
 4cc:	843e                	mv	s0,a5
    while (val > 0) {
 4ce:	0785                	addi	a5,a5,1
        buf[idx++] = (char)('0' + (val % 10));
 4d0:	03070713          	addi	a4,a4,48 # 40040030 <__global_pointer$+0x2003f830>
 4d4:	00e58023          	sb	a4,0(a1)
        val /= 10;
 4d8:	872a                	mv	a4,a0
 4da:	02d55533          	divu	a0,a0,a3
    while (val > 0) {
 4de:	fee663e3          	bltu	a2,a4,4c4 <uart_print_dec+0x14>
    }
    /* Tersine çevirerek gönder */
    for (int i = idx - 1; i >= 0; i--) {
 4e2:	597d                	li	s2,-1
        uart_send_byte((uint8_t)buf[i]);
 4e4:	008487b3          	add	a5,s1,s0
 4e8:	0007c503          	lbu	a0,0(a5)
    for (int i = idx - 1; i >= 0; i--) {
 4ec:	147d                	addi	s0,s0,-1
        uart_send_byte((uint8_t)buf[i]);
 4ee:	3f89                	jal	440 <uart_send_byte>
    for (int i = idx - 1; i >= 0; i--) {
 4f0:	ff241ae3          	bne	s0,s2,4e4 <uart_print_dec+0x34>
    }
}
 4f4:	40f2                	lw	ra,28(sp)
 4f6:	4462                	lw	s0,24(sp)
 4f8:	44d2                	lw	s1,20(sp)
 4fa:	4942                	lw	s2,16(sp)
 4fc:	6105                	addi	sp,sp,32
 4fe:	8082                	ret
        uart_send_byte('0');
 500:	03000513          	li	a0,48
 504:	bf35                	j	440 <uart_send_byte>
 506:	0000                	unimp
 508:	3d20                	.insn	2, 0x3d20
 50a:	0020                	addi	s0,sp,8
 50c:	0a0d                	addi	s4,s4,3
 50e:	0000                	unimp
 510:	3d3d                	jal	34e <qspi_read_with_addr+0x3a>
 512:	3d3d                	jal	350 <qspi_read_with_addr+0x3c>
 514:	3d3d                	jal	352 <qspi_read_with_addr+0x3e>
 516:	3d3d                	jal	354 <qspi_read_with_addr+0x40>
 518:	3d3d                	jal	356 <qspi_read_with_addr+0x42>
 51a:	3d3d                	jal	358 <qspi_read_with_addr+0x44>
 51c:	3d3d                	jal	35a <qspi_read_with_addr+0x46>
 51e:	3d3d                	jal	35c <qspi_read_with_addr+0x48>
 520:	3d3d                	jal	35e <qspi_read_with_addr+0x4a>
 522:	3d3d                	jal	360 <qspi_read_with_addr+0x4c>
 524:	3d3d                	jal	362 <qspi_read_with_addr+0x4e>
 526:	3d3d                	jal	364 <qspi_read_with_addr+0x50>
 528:	3d3d                	jal	366 <qspi_read_with_addr+0x52>
 52a:	3d3d                	jal	368 <qspi_read_with_addr+0x54>
 52c:	3d3d                	jal	36a <qspi_read_with_addr+0x56>
 52e:	3d3d                	jal	36c <qspi_read_with_addr+0x58>
 530:	3d3d                	jal	36e <qspi_read_with_addr+0x5a>
 532:	3d3d                	jal	370 <qspi_init>
 534:	0a0d                	addi	s4,s4,3
 536:	0000                	unimp
 538:	2020                	.insn	2, 0x2020
 53a:	32335643          	.insn	4, 0x32335643
 53e:	3445                	jal	ffffffde <__global_pointer$+0xdffff7de>
 540:	5030                	lw	a2,96(s0)
 542:	5320                	lw	s0,96(a4)
 544:	2d20436f          	jal	t1,4816 <_etext+0x40ea>
 548:	5420                	lw	s0,104(s0)
 54a:	4b45                	li	s6,17
 54c:	4f4e                	lw	t5,208(sp)
 54e:	4546                	lw	a0,80(sp)
 550:	32205453          	.insn	4, 0x32205453
 554:	3230                	.insn	2, 0x3230
 556:	2036                	.insn	2, 0x2036
 558:	2020                	.insn	2, 0x2020
 55a:	0a0d                	addi	s4,s4,3
 55c:	0000                	unimp
 55e:	0000                	unimp
 560:	2020                	.insn	2, 0x2020
 562:	6f42                	.insn	2, 0x6f42
 564:	4f20746f          	jal	s0,7a56 <_etext+0x732a>
 568:	2020214b          	.insn	4, 0x2020214b
 56c:	2020                	.insn	2, 0x2020
 56e:	2020                	.insn	2, 0x2020
 570:	2020                	.insn	2, 0x2020
 572:	2020                	.insn	2, 0x2020
 574:	2020                	.insn	2, 0x2020
 576:	2020                	.insn	2, 0x2020
 578:	2020                	.insn	2, 0x2020
 57a:	2020                	.insn	2, 0x2020
 57c:	2020                	.insn	2, 0x2020
 57e:	2020                	.insn	2, 0x2020
 580:	2020                	.insn	2, 0x2020
 582:	0d20                	addi	s0,sp,664
 584:	000a                	c.slli	zero,0x2
 586:	0000                	unimp
 588:	0a0d                	addi	s4,s4,3
 58a:	4950475b          	.insn	4, 0x4950475b
 58e:	6554204f          	.insn	4, 0x6554204f
 592:	0d5d7473          	csrrci	s0,0xd5,26
 596:	000a                	c.slli	zero,0x2
 598:	2020                	.insn	2, 0x2020
 59a:	2052444f          	.insn	4, 0x2052444f
 59e:	6170                	.insn	2, 0x6170
 5a0:	7474                	.insn	2, 0x7474
 5a2:	7265                	lui	tp,0xffff9
 5a4:	3a6e                	.insn	2, 0x3a6e
 5a6:	0020                	addi	s0,sp,8
 5a8:	2020                	.insn	2, 0x2020
 5aa:	4449                	li	s0,18
 5ac:	2052                	.insn	2, 0x2052
 5ae:	6572                	.insn	2, 0x6572
 5b0:	6461                	lui	s0,0x18
 5b2:	203a                	.insn	2, 0x203a
 5b4:	0000                	unimp
 5b6:	0000                	unimp
 5b8:	4950475b          	.insn	4, 0x4950475b
 5bc:	6554204f          	.insn	4, 0x6554204f
 5c0:	205d7473          	csrrci	s0,vstvec,26
 5c4:	4f44                	lw	s1,28(a4)
 5c6:	454e                	lw	a0,208(sp)
 5c8:	0a0d                	addi	s4,s4,3
 5ca:	0000                	unimp
 5cc:	0a0d                	addi	s4,s4,3
 5ce:	6d69545b          	.insn	4, 0x6d69545b
 5d2:	7265                	lui	tp,0xffff9
 5d4:	5420                	lw	s0,104(s0)
 5d6:	7365                	lui	t1,0xffff9
 5d8:	5d74                	lw	a3,124(a0)
 5da:	0a0d                	addi	s4,s4,3
 5dc:	0000                	unimp
 5de:	0000                	unimp
 5e0:	2020                	.insn	2, 0x2020
 5e2:	74696157          	.insn	4, 0x74696157
 5e6:	6e69                	lui	t3,0x1a
 5e8:	30312067          	.insn	4, 0x30312067
 5ec:	3030                	.insn	2, 0x3030
 5ee:	6d20                	.insn	2, 0x6d20
 5f0:	2e2e2e73          	csrrs	t3,0x2e2,t3
 5f4:	0a0d                	addi	s4,s4,3
 5f6:	0000                	unimp
 5f8:	2020                	.insn	2, 0x2020
 5fa:	6c45                	lui	s8,0x11
 5fc:	7061                	c.lui	zero,0xffff8
 5fe:	20646573          	csrrsi	a0,0x206,8
 602:	736d                	lui	t1,0xffffb
 604:	2820                	.insn	2, 0x2820
 606:	7665                	lui	a2,0xffff9
 608:	6e65                	lui	t3,0x19
 60a:	7374                	.insn	2, 0x7374
 60c:	0029                	c.nop	10
 60e:	0000                	unimp
 610:	2020                	.insn	2, 0x2020
 612:	614c                	.insn	2, 0x614c
 614:	54207473          	csrrci	s0,0x542,0
 618:	4d49                	li	s10,18
 61a:	435f 544e 0000      	.insn	6, 0x544e435f
 620:	6d69545b          	.insn	4, 0x6d69545b
 624:	7265                	lui	tp,0xffff9
 626:	5420                	lw	s0,104(s0)
 628:	7365                	lui	t1,0xffff9
 62a:	5d74                	lw	a3,124(a0)
 62c:	4420                	lw	s0,72(s0)
 62e:	0d454e4f          	.insn	4, 0x0d454e4f
 632:	000a                	c.slli	zero,0x2
 634:	0a0d                	addi	s4,s4,3
 636:	5053515b          	.insn	4, 0x5053515b
 63a:	2049                	jal	6bc <uart_print_dec+0x20c>
 63c:	6554                	.insn	2, 0x6554
 63e:	0d5d7473          	csrrci	s0,0xd5,26
 642:	000a                	c.slli	zero,0x2
 644:	2020                	.insn	2, 0x2020
 646:	5351                	li	t1,-12
 648:	4950                	lw	a2,20(a0)
 64a:	6920                	.insn	2, 0x6920
 64c:	696e                	.insn	2, 0x696e
 64e:	6974                	.insn	2, 0x6974
 650:	6c61                	lui	s8,0x18
 652:	7a69                	lui	s4,0xffffa
 654:	6465                	lui	s0,0x19
 656:	0a0d                	addi	s4,s4,3 # ffffa003 <__global_pointer$+0xdfff9803>
 658:	0000                	unimp
 65a:	0000                	unimp
 65c:	2020                	.insn	2, 0x2020
 65e:	454a                	lw	a0,144(sp)
 660:	4544                	lw	s1,12(a0)
 662:	44492043          	.insn	4, 0x44492043
 666:	0000                	unimp
 668:	2020                	.insn	2, 0x2020
 66a:	74617453          	.insn	4, 0x74617453
 66e:	7375                	lui	t1,0xffffd
 670:	5220                	lw	s0,96(a2)
 672:	6765                	lui	a4,0x19
 674:	312d                	jal	29e <main+0x16e>
 676:	0000                	unimp
 678:	5053515b          	.insn	4, 0x5053515b
 67c:	2049                	jal	6fe <uart_print_dec+0x24e>
 67e:	6554                	.insn	2, 0x6554
 680:	205d7473          	csrrci	s0,vstvec,26
 684:	4f44                	lw	s1,28(a4)
 686:	454e                	lw	a0,208(sp)
 688:	0a0d                	addi	s4,s4,3
 68a:	0000                	unimp
 68c:	0a0d                	addi	s4,s4,3
 68e:	4332495b          	.insn	4, 0x4332495b
 692:	5420                	lw	s0,104(s0)
 694:	7365                	lui	t1,0xffff9
 696:	5d74                	lw	a3,124(a0)
 698:	0a0d                	addi	s4,s4,3
 69a:	0000                	unimp
 69c:	2020                	.insn	2, 0x2020
 69e:	6552                	.insn	2, 0x6552
 6a0:	6461                	lui	s0,0x18
 6a2:	4f20                	lw	s0,88(a4)
 6a4:	62202c4b          	.insn	4, 0x62202c4b
 6a8:	7479                	lui	s0,0xffffe
 6aa:	2065                	jal	752 <_etext+0x26>
 6ac:	203d                	jal	6da <uart_print_dec+0x22a>
 6ae:	0000                	unimp
 6b0:	2020                	.insn	2, 0x2020
 6b2:	6552                	.insn	2, 0x6552
 6b4:	6461                	lui	s0,0x18
 6b6:	6620                	.insn	2, 0x6620
 6b8:	6961                	lui	s2,0x18
 6ba:	656c                	.insn	2, 0x656c
 6bc:	2064                	.insn	2, 0x2064
 6be:	6e28                	.insn	2, 0x6e28
 6c0:	6c73206f          	j	33586 <_etext+0x32e5a>
 6c4:	7661                	lui	a2,0xffff8
 6c6:	2065                	jal	76e <_etext+0x42>
 6c8:	7420726f          	jal	tp,7e0a <_etext+0x76de>
 6cc:	6d69                	lui	s10,0x1a
 6ce:	6f65                	lui	t5,0x19
 6d0:	7475                	lui	s0,0xffffd
 6d2:	0d29                	addi	s10,s10,10 # 1a00a <_etext+0x198de>
 6d4:	000a                	c.slli	zero,0x2
 6d6:	0000                	unimp
 6d8:	4332495b          	.insn	4, 0x4332495b
 6dc:	5420                	lw	s0,104(s0)
 6de:	7365                	lui	t1,0xffff9
 6e0:	5d74                	lw	a3,124(a0)
 6e2:	4420                	lw	s0,72(s0)
 6e4:	0d454e4f          	.insn	4, 0x0d454e4f
 6e8:	000a                	c.slli	zero,0x2
 6ea:	0000                	unimp
 6ec:	0a0d                	addi	s4,s4,3
 6ee:	6165485b          	.insn	4, 0x6165485b
 6f2:	7472                	.insn	2, 0x7472
 6f4:	6562                	.insn	2, 0x6562
 6f6:	7461                	lui	s0,0xffff8
 6f8:	4c20                	lw	s0,88(s0)
 6fa:	5d706f6f          	jal	t5,74d0 <_etext+0x6da4>
 6fe:	0a0d                	addi	s4,s4,3
 700:	0000                	unimp
 702:	0000                	unimp
 704:	2020                	.insn	2, 0x2020
 706:	6542                	.insn	2, 0x6542
 708:	7461                	lui	s0,0xffff8
 70a:	0020                	addi	s0,sp,8
 70c:	2020                	.insn	2, 0x2020
 70e:	454c                	lw	a1,12(a0)
 710:	3a44                	.insn	2, 0x3a44
 712:	0020                	addi	s0,sp,8
 714:	7830                	.insn	2, 0x7830
	...

00000718 <hex_chars.0>:
 718:	3130 3332 3534 3736 3938 4241 4443 4645     0123456789ABCDEF
 728:	0000 0000                                   ....
